target datalayout = "e-m:e-p270:32:32-p271:32:32-p272:64:64-i64:64-i128:128-f80:128-n8:16:32:64-S128"
target triple = "x86_64-pc-linux-gnu"

%struct.FileHeader = type { %struct.BlockHeader, i8, i32, i8, %union.anon, [2048 x i32], %class.Array, %class.RarTime, %class.RarTime, %class.RarTime, i64, i64, i64, %struct.HashValue, i32, i8, i8, i8, i8, i32, i8, [16 x i8], [16 x i8], i8, [8 x i8], i8, [32 x i8], i32, i8, i8, i8, i8, i64, i8, i8, i8, i32, i32, [2048 x i32], i8, i8, i8, i8, [256 x i8], [256 x i8], i32, i32 }
%struct.BlockHeader = type { %struct.BaseBlock, i32 }
%struct.BaseBlock = type { i32, i32, i32, i32, i8 }
%union.anon = type { i32 }
%class.Array = type { ptr, i64, i64, i64 }
%class.RarTime = type { i64 }
%struct.HashValue = type { i32, %union.anon.0 }
%union.anon.0 = type { i32, [28 x i8] }

; Function Attrs: mustprogress nounwind uwtable
define linkonce_odr void @_ZN5ArrayIhE9CleanDataEv(ptr noundef nonnull align 8 dereferenceable(32) %0) #1 comdat align 2 {
  %2 = alloca ptr, align 8
  store ptr %0, ptr %2, align 8
  %3 = load ptr, ptr %2, align 8
  %4 = getelementptr inbounds %class.Array, ptr %3, i32 0, i32 0
  store ptr null, ptr %4, align 8
  %5 = getelementptr inbounds %class.Array, ptr %3, i32 0, i32 1
  store i64 0, ptr %5, align 8
  %6 = getelementptr inbounds %class.Array, ptr %3, i32 0, i32 2
  store i64 0, ptr %6, align 8
  %7 = getelementptr inbounds %class.Array, ptr %3, i32 0, i32 3
  store i64 0, ptr %7, align 8
  ret void
}

; Function Attrs: mustprogress nounwind uwtable
define linkonce_odr void @_ZN5ArrayIhE5ResetEv(ptr noundef nonnull align 8 dereferenceable(32) %0) #1 comdat align 2 {
  %2 = alloca ptr, align 8
  store ptr %0, ptr %2, align 8
  %3 = load ptr, ptr %2, align 8
  %4 = getelementptr inbounds %class.Array, ptr %3, i32 0, i32 0
  %5 = load ptr, ptr %4, align 8
  %6 = icmp ne ptr %5, null
  br i1 %6, label %7, label %11

7:                                                ; preds = %1
  %8 = getelementptr inbounds %class.Array, ptr %3, i32 0, i32 0
  %9 = load ptr, ptr %8, align 8
  call void @free(ptr noundef %9) #7
  %10 = getelementptr inbounds %class.Array, ptr %3, i32 0, i32 0
  store ptr null, ptr %10, align 8
  br label %11

11:                                               ; preds = %7, %1
  %12 = getelementptr inbounds %class.Array, ptr %3, i32 0, i32 1
  store i64 0, ptr %12, align 8
  %13 = getelementptr inbounds %class.Array, ptr %3, i32 0, i32 2
  store i64 0, ptr %13, align 8
  ret void
}

; Function Attrs: mustprogress uwtable
define noundef nonnull align 8 dereferenceable(17184) ptr @_ZN10FileHeaderaSERS_(ptr noundef nonnull align 8 dereferenceable(17184) %0, ptr noundef nonnull align 8 dereferenceable(17184) %1) #0 align 2 {
  %3 = alloca ptr, align 8
  %4 = alloca ptr, align 8
  store ptr %0, ptr %3, align 8
  store ptr %1, ptr %4, align 8
  %5 = load ptr, ptr %3, align 8
  %6 = getelementptr inbounds %struct.FileHeader, ptr %5, i32 0, i32 6
  call void @_ZN5ArrayIhE5ResetEv(ptr noundef nonnull align 8 dereferenceable(32) %6)
  %7 = load ptr, ptr %4, align 8
  call void @llvm.memcpy.p0.p0.i64(ptr align 8 %5, ptr align 8 %7, i64 17184, i1 false)
  %8 = getelementptr inbounds %struct.FileHeader, ptr %5, i32 0, i32 6
  call void @_ZN5ArrayIhE9CleanDataEv(ptr noundef nonnull align 8 dereferenceable(32) %8)
  %9 = load ptr, ptr %4, align 8
  %10 = getelementptr inbounds %struct.FileHeader, ptr %9, i32 0, i32 6
  %11 = getelementptr inbounds %struct.FileHeader, ptr %5, i32 0, i32 6
  %12 = call noundef nonnull align 8 dereferenceable(32) ptr @_ZN5ArrayIhEaSERKS0_(ptr noundef nonnull align 8 dereferenceable(32) %11, ptr noundef nonnull align 8 dereferenceable(32) %10)
  ret ptr %5
}