; Function Attrs: mustprogress uwtable
define noundef nonnull align 8 dereferenceable(17184) ptr @_ZN10FileHeaderaSERS_(ptr noundef nonnull returned align 8 dereferenceable(17184) initializes((0, 8232), (8240, 17184)) %0, ptr noundef nonnull align 8 dereferenceable(17184) %1) local_unnamed_addr #0 align 2 {
  %3 = getelementptr inbounds nuw i8, ptr %0, i64 8232
  %4 = load ptr, ptr %3, align 8
  %.not.i = icmp eq ptr %4, null
  br i1 %.not.i, label %_ZN5ArrayIhE5ResetEv.exit, label %5

5:                                                ; preds = %2
  tail call void @free(ptr noundef nonnull %4) #10
  store ptr null, ptr %3, align 8
  br label %_ZN5ArrayIhE5ResetEv.exit

_ZN5ArrayIhE5ResetEv.exit:                        ; preds = %2, %5
  %6 = getelementptr inbounds nuw i8, ptr %0, i64 8240
  tail call void @llvm.memset.p0.i64(ptr noundef nonnull align 8 dereferenceable(16) %6, i8 0, i64 16, i1 false)
  tail call void @llvm.memcpy.p0.p0.i64(ptr noundef nonnull align 8 dereferenceable(17184) %0, ptr noundef nonnull align 8 dereferenceable(17184) %1, i64 17184, i1 false)
  tail call void @llvm.memset.p0.i64(ptr noundef nonnull align 8 dereferenceable(32) %3, i8 0, i64 32, i1 false)
  %7 = getelementptr inbounds nuw i8, ptr %1, i64 8232
  %8 = tail call noundef nonnull align 8 dereferenceable(32) ptr @_ZN5ArrayIhEaSERKS0_(ptr noundef nonnull align 8 dereferenceable(32) %3, ptr noundef nonnull align 8 dereferenceable(32) %7)
  ret ptr %0
}